target datalayout = "e-m:e-p270:32:32-p271:32:32-p272:64:64-i64:64-i128:128-f80:128-n8:16:32:64-S128"
target triple = "x86_64-pc-linux-gnu"

%struct._zend_executor_globals = type { %struct._zval_struct, %struct._zval_struct, [32 x ptr], ptr, ptr, %struct._zend_array, %struct._zend_array, ptr, i32, i32, ptr, ptr, ptr, ptr, ptr, ptr, i64, ptr, ptr, i32, i32, i64, i32, i32, i32, i8, i8, %struct.zend_atomic_bool_s, %struct.zend_atomic_bool_s, ptr, i64, ptr, ptr, %struct._zend_array, %struct._zend_array, i32, i8, %struct._zval_struct, %struct._zval_struct, %struct._zend_stack, %struct._zend_stack, %struct._zend_stack, ptr, i32, i32, i64, ptr, ptr, ptr, %struct._zend_objects_store, ptr, ptr, ptr, [3 x %struct._zend_op], ptr, i8, i8, i64, i32, i32, ptr, [16 x %struct._HashTableIterator], ptr, %union._zend_function, %struct._zend_op, %struct._zend_array, i64, %struct.zend_get_gc_buffer, ptr, ptr, ptr, i64, i8, i32, ptr, ptr, i64, %struct._zend_call_stack, i64, i64, [6 x ptr] }
%struct.zend_atomic_bool_s = type { i8 }
%struct._zval_struct = type { %union._zend_value, %union.anon, %union.anon.2 }
%union._zend_value = type { i64 }
%union.anon = type { i32 }
%union.anon.2 = type { i32 }
%struct._zend_stack = type { i32, i32, i32, ptr }
%struct._zend_objects_store = type { ptr, i32, i32, i32 }
%struct._HashTableIterator = type { ptr, i32, i32 }
%union._zend_function = type { %struct._zend_op_array }
%struct._zend_op_array = type { i8, [3 x i8], i32, ptr, ptr, ptr, i32, i32, ptr, ptr, ptr, ptr, i32, i32, i32, i32, ptr, ptr, ptr, ptr, ptr, i32, i32, ptr, ptr, ptr, i32, i32, i32, i32, ptr, ptr, [6 x ptr] }
%struct._zend_op = type { ptr, %union._znode_op, %union._znode_op, %union._znode_op, i32, i32, i8, i8, i8, i8 }
%union._znode_op = type { i32 }
%struct._zend_array = type { %struct._zend_refcounted_h, %union.anon.4, i32, %union.anon.6, i32, i32, i32, i32, i64, ptr }
%struct._zend_refcounted_h = type { i32, %union.anon.3 }
%union.anon.3 = type { i32 }
%union.anon.4 = type { i32 }
%union.anon.6 = type { ptr }
%struct.zend_get_gc_buffer = type { ptr, ptr, ptr }
%struct._zend_call_stack = type { ptr, i64 }
%struct._zend_execute_data = type { ptr, ptr, ptr, ptr, %struct._zval_struct, ptr, ptr, ptr, ptr }
%struct._spl_array_object = type { %struct._zval_struct, i32, i32, i8, i8, ptr, ptr, ptr, ptr, ptr, ptr, ptr, %struct._zend_object }
%struct._zend_object = type { %struct._zend_refcounted_h, i32, ptr, ptr, ptr, [1 x %struct._zval_struct] }
%struct._zend_string = type { %struct._zend_refcounted_h, i64, i64, [1 x i8] }

@executor_globals = external global %struct._zend_executor_globals, align 8
@spl_ce_UnexpectedValueException = external global ptr, align 8
@.str.17 = private unnamed_addr constant [2 x i8] c"h\00", align 1
@.str.18 = private unnamed_addr constant [43 x i8] c"Incomplete or ill-typed serialization data\00", align 1
@spl_ce_InvalidArgumentException = external global ptr, align 8
@.str.19 = private unnamed_addr constant [42 x i8] c"Passed variable is not an array or object\00", align 1
@.str.20 = private unnamed_addr constant [78 x i8] c"Cannot deserialize ArrayObject with iterator class '%s'; no such class exists\00", align 1
@zend_ce_iterator = external global ptr, align 8
@.str.21 = private unnamed_addr constant [110 x i8] c"Cannot deserialize ArrayObject with iterator class '%s'; this class does not implement the Iterator interface\00", align 1

; Function Attrs: nounwind uwtable
define internal ptr @spl_array_from_obj(ptr noundef %0) #0 {
  %2 = alloca ptr, align 8
  store ptr %0, ptr %2, align 8
  %3 = load ptr, ptr %2, align 8
  %4 = getelementptr inbounds i8, ptr %3, i64 -88
  ret ptr %4
}

; Function Attrs: nounwind uwtable
define hidden void @zim_ArrayObject___unserialize(ptr noundef %0, ptr noundef %1) #0 {
  %3 = alloca ptr, align 8
  %4 = alloca ptr, align 8
  %5 = alloca ptr, align 8
  %6 = alloca ptr, align 8
  %7 = alloca ptr, align 8
  %8 = alloca ptr, align 8
  %9 = alloca ptr, align 8
  %10 = alloca ptr, align 8
  %11 = alloca ptr, align 8
  %12 = alloca ptr, align 8
  %13 = alloca ptr, align 8
  %14 = alloca ptr, align 8
  %15 = alloca ptr, align 8
  %16 = alloca ptr, align 8
  %17 = alloca ptr, align 8
  %18 = alloca ptr, align 8
  %19 = alloca ptr, align 8
  %20 = alloca i64, align 8
  %21 = alloca ptr, align 8
  store ptr %0, ptr %12, align 8
  store ptr %1, ptr %13, align 8
  %22 = load ptr, ptr %12, align 8
  %23 = getelementptr inbounds %struct._zend_execute_data, ptr %22, i32 0, i32 4
  %24 = getelementptr inbounds %struct._zval_struct, ptr %23, i32 0, i32 0
  %25 = load ptr, ptr %24, align 8
  %26 = call ptr @spl_array_from_obj(ptr noundef %25)
  store ptr %26, ptr %14, align 8
  %27 = load ptr, ptr %12, align 8
  %28 = getelementptr inbounds %struct._zend_execute_data, ptr %27, i32 0, i32 4
  %29 = getelementptr inbounds %struct._zval_struct, ptr %28, i32 0, i32 2
  %30 = load i32, ptr %29, align 4
  %31 = call i32 (i32, ptr, ...) @zend_parse_parameters(i32 noundef %30, ptr noundef @.str.17, ptr noundef %15)
  %32 = icmp eq i32 %31, -1
  br i1 %32, label %33, label %38

33:                                               ; preds = %2
  br label %34

34:                                               ; preds = %33
  %35 = load ptr, ptr getelementptr inbounds (%struct._zend_executor_globals, ptr @executor_globals, i32 0, i32 50), align 8
  %36 = icmp ne ptr %35, null
  call void @llvm.assume(i1 %36)
  br label %216

37:                                               ; No predecessors!
  br label %38

38:                                               ; preds = %37, %2
  %39 = load ptr, ptr %15, align 8
  %40 = call ptr @zend_hash_index_find(ptr noundef %39, i64 noundef 0)
  store ptr %40, ptr %16, align 8
  %41 = load ptr, ptr %15, align 8
  %42 = call ptr @zend_hash_index_find(ptr noundef %41, i64 noundef 1)
  store ptr %42, ptr %17, align 8
  %43 = load ptr, ptr %15, align 8
  %44 = call ptr @zend_hash_index_find(ptr noundef %43, i64 noundef 2)
  store ptr %44, ptr %18, align 8
  %45 = load ptr, ptr %15, align 8
  %46 = call ptr @zend_hash_index_find(ptr noundef %45, i64 noundef 3)
  store ptr %46, ptr %19, align 8
  %47 = load ptr, ptr %16, align 8
  %48 = icmp ne ptr %47, null
  br i1 %48, label %49, label %86

49:                                               ; preds = %38
  %50 = load ptr, ptr %17, align 8
  %51 = icmp ne ptr %50, null
  br i1 %51, label %52, label %86

52:                                               ; preds = %49
  %53 = load ptr, ptr %18, align 8
  %54 = icmp ne ptr %53, null
  br i1 %54, label %55, label %86

55:                                               ; preds = %52
  %56 = load ptr, ptr %16, align 8
  store ptr %56, ptr %5, align 8
  %57 = load ptr, ptr %5, align 8
  %58 = getelementptr inbounds %struct._zval_struct, ptr %57, i32 0, i32 1
  %59 = load i8, ptr %58, align 8
  %60 = zext i8 %59 to i32
  %61 = icmp ne i32 %60, 4
  br i1 %61, label %86, label %62

62:                                               ; preds = %55
  %63 = load ptr, ptr %18, align 8
  store ptr %63, ptr %6, align 8
  %64 = load ptr, ptr %6, align 8
  %65 = getelementptr inbounds %struct._zval_struct, ptr %64, i32 0, i32 1
  %66 = load i8, ptr %65, align 8
  %67 = zext i8 %66 to i32
  %68 = icmp ne i32 %67, 7
  br i1 %68, label %86, label %69

69:                                               ; preds = %62
  %70 = load ptr, ptr %19, align 8
  %71 = icmp ne ptr %70, null
  br i1 %71, label %72, label %93

72:                                               ; preds = %69
  %73 = load ptr, ptr %19, align 8
  store ptr %73, ptr %7, align 8
  %74 = load ptr, ptr %7, align 8
  %75 = getelementptr inbounds %struct._zval_struct, ptr %74, i32 0, i32 1
  %76 = load i8, ptr %75, align 8
  %77 = zext i8 %76 to i32
  %78 = icmp ne i32 %77, 1
  br i1 %78, label %79, label %93

79:                                               ; preds = %72
  %80 = load ptr, ptr %19, align 8
  store ptr %80, ptr %8, align 8
  %81 = load ptr, ptr %8, align 8
  %82 = getelementptr inbounds %struct._zval_struct, ptr %81, i32 0, i32 1
  %83 = load i8, ptr %82, align 8
  %84 = zext i8 %83 to i32
  %85 = icmp ne i32 %84, 6
  br i1 %85, label %86, label %93

86:                                               ; preds = %79, %62, %55, %52, %49, %38
  %87 = load ptr, ptr @spl_ce_UnexpectedValueException, align 8
  %88 = call ptr @zend_throw_exception(ptr noundef %87, ptr noundef @.str.18, i64 noundef 0)
  br label %89

89:                                               ; preds = %86
  %90 = load ptr, ptr getelementptr inbounds (%struct._zend_executor_globals, ptr @executor_globals, i32 0, i32 50), align 8
  %91 = icmp ne ptr %90, null
  call void @llvm.assume(i1 %91)
  br label %216

92:                                               ; No predecessors!
  br label %93

93:                                               ; preds = %92, %79, %72, %69
  %94 = load ptr, ptr %16, align 8
  %95 = getelementptr inbounds %struct._zval_struct, ptr %94, i32 0, i32 0
  %96 = load i64, ptr %95, align 8
  store i64 %96, ptr %20, align 8
  %97 = load ptr, ptr %14, align 8
  %98 = getelementptr inbounds %struct._spl_array_object, ptr %97, i32 0, i32 2
  %99 = load i32, ptr %98, align 4
  %100 = and i32 %99, -16842752
  store i32 %100, ptr %98, align 4
  %101 = load i64, ptr %20, align 8
  %102 = and i64 %101, 16842751
  %103 = load ptr, ptr %14, align 8
  %104 = getelementptr inbounds %struct._spl_array_object, ptr %103, i32 0, i32 2
  %105 = load i32, ptr %104, align 4
  %106 = sext i32 %105 to i64
  %107 = or i64 %106, %102
  %108 = trunc i64 %107 to i32
  store i32 %108, ptr %104, align 4
  %109 = load i64, ptr %20, align 8
  %110 = and i64 %109, 16777216
  %111 = icmp ne i64 %110, 0
  br i1 %111, label %112, label %120

112:                                              ; preds = %93
  %113 = load ptr, ptr %14, align 8
  %114 = getelementptr inbounds %struct._spl_array_object, ptr %113, i32 0, i32 0
  call void @zval_ptr_dtor(ptr noundef %114)
  br label %115

115:                                              ; preds = %112
  %116 = load ptr, ptr %14, align 8
  %117 = getelementptr inbounds %struct._spl_array_object, ptr %116, i32 0, i32 0
  %118 = getelementptr inbounds %struct._zval_struct, ptr %117, i32 0, i32 1
  store i32 0, ptr %118, align 8
  br label %119

119:                                              ; preds = %115
  br label %146

120:                                              ; preds = %93
  %121 = load ptr, ptr %17, align 8
  store ptr %121, ptr %9, align 8
  %122 = load ptr, ptr %9, align 8
  %123 = getelementptr inbounds %struct._zval_struct, ptr %122, i32 0, i32 1
  %124 = load i8, ptr %123, align 8
  %125 = zext i8 %124 to i32
  %126 = icmp ne i32 %125, 8
  br i1 %126, label %127, label %141

127:                                              ; preds = %120
  %128 = load ptr, ptr %17, align 8
  store ptr %128, ptr %10, align 8
  %129 = load ptr, ptr %10, align 8
  %130 = getelementptr inbounds %struct._zval_struct, ptr %129, i32 0, i32 1
  %131 = load i8, ptr %130, align 8
  %132 = zext i8 %131 to i32
  %133 = icmp ne i32 %132, 7
  br i1 %133, label %134, label %141

134:                                              ; preds = %127
  %135 = load ptr, ptr @spl_ce_InvalidArgumentException, align 8
  %136 = call ptr @zend_throw_exception(ptr noundef %135, ptr noundef @.str.19, i64 noundef 0)
  br label %137

137:                                              ; preds = %134
  %138 = load ptr, ptr getelementptr inbounds (%struct._zend_executor_globals, ptr @executor_globals, i32 0, i32 50), align 8
  %139 = icmp ne ptr %138, null
  call void @llvm.assume(i1 %139)
  br label %216

140:                                              ; No predecessors!
  br label %141

141:                                              ; preds = %140, %127, %120
  %142 = load ptr, ptr %12, align 8
  %143 = getelementptr inbounds %struct._zend_execute_data, ptr %142, i32 0, i32 4
  %144 = load ptr, ptr %14, align 8
  %145 = load ptr, ptr %17, align 8
  call void @spl_array_set_array(ptr noundef %143, ptr noundef %144, ptr noundef %145, i64 noundef 0, i1 noundef zeroext true)
  br label %146

146:                                              ; preds = %141, %119
  %147 = load ptr, ptr %14, align 8
  %148 = getelementptr inbounds %struct._spl_array_object, ptr %147, i32 0, i32 12
  %149 = load ptr, ptr %18, align 8
  %150 = getelementptr inbounds %struct._zval_struct, ptr %149, i32 0, i32 0
  %151 = load ptr, ptr %150, align 8
  call void @object_properties_load(ptr noundef %148, ptr noundef %151)
  %152 = load ptr, ptr getelementptr inbounds (%struct._zend_executor_globals, ptr @executor_globals, i32 0, i32 50), align 8
  %153 = icmp ne ptr %152, null
  br i1 %153, label %154, label %159

154:                                              ; preds = %146
  br label %155

155:                                              ; preds = %154
  %156 = load ptr, ptr getelementptr inbounds (%struct._zend_executor_globals, ptr @executor_globals, i32 0, i32 50), align 8
  %157 = icmp ne ptr %156, null
  call void @llvm.assume(i1 %157)
  br label %216

158:                                              ; No predecessors!
  br label %159

159:                                              ; preds = %158, %146
  %160 = load ptr, ptr %19, align 8
  %161 = icmp ne ptr %160, null
  br i1 %161, label %162, label %216

162:                                              ; preds = %159
  %163 = load ptr, ptr %19, align 8
  store ptr %163, ptr %11, align 8
  %164 = load ptr, ptr %11, align 8
  %165 = getelementptr inbounds %struct._zval_struct, ptr %164, i32 0, i32 1
  %166 = load i8, ptr %165, align 8
  %167 = zext i8 %166 to i32
  %168 = icmp eq i32 %167, 6
  br i1 %168, label %169, label %216

169:                                              ; preds = %162
  %170 = load ptr, ptr %19, align 8
  %171 = getelementptr inbounds %struct._zval_struct, ptr %170, i32 0, i32 0
  %172 = load ptr, ptr %171, align 8
  %173 = call ptr @zend_lookup_class(ptr noundef %172)
  store ptr %173, ptr %21, align 8
  %174 = load ptr, ptr %21, align 8
  %175 = icmp ne ptr %174, null
  br i1 %175, label %188, label %176

176:                                              ; preds = %169
  %177 = load ptr, ptr @spl_ce_UnexpectedValueException, align 8
  %178 = load ptr, ptr %19, align 8
  %179 = getelementptr inbounds %struct._zval_struct, ptr %178, i32 0, i32 0
  %180 = load ptr, ptr %179, align 8
  %181 = getelementptr inbounds %struct._zend_string, ptr %180, i32 0, i32 3
  %182 = getelementptr inbounds [1 x i8], ptr %181, i64 0, i64 0
  %183 = call ptr (ptr, i64, ptr, ...) @zend_throw_exception_ex(ptr noundef %177, i64 noundef 0, ptr noundef @.str.20, ptr noundef %182)
  br label %184

184:                                              ; preds = %176
  %185 = load ptr, ptr getelementptr inbounds (%struct._zend_executor_globals, ptr @executor_globals, i32 0, i32 50), align 8
  %186 = icmp ne ptr %185, null
  call void @llvm.assume(i1 %186)
  br label %216

187:                                              ; No predecessors!
  br label %188

188:                                              ; preds = %187, %169
  %189 = load ptr, ptr %21, align 8
  %190 = load ptr, ptr @zend_ce_iterator, align 8
  store ptr %189, ptr %3, align 8
  store ptr %190, ptr %4, align 8
  %191 = load ptr, ptr %3, align 8
  %192 = load ptr, ptr %4, align 8
  %193 = icmp eq ptr %191, %192
  br i1 %193, label %198, label %194

194:                                              ; preds = %188
  %195 = load ptr, ptr %3, align 8
  %196 = load ptr, ptr %4, align 8
  %197 = call zeroext i1 @instanceof_function_slow(ptr noundef %195, ptr noundef %196) #12
  br label %198

198:                                              ; preds = %194, %188
  %199 = phi i1 [ true, %188 ], [ %197, %194 ]
  br i1 %199, label %212, label %200

200:                                              ; preds = %198
  %201 = load ptr, ptr @spl_ce_UnexpectedValueException, align 8
  %202 = load ptr, ptr %19, align 8
  %203 = getelementptr inbounds %struct._zval_struct, ptr %202, i32 0, i32 0
  %204 = load ptr, ptr %203, align 8
  %205 = getelementptr inbounds %struct._zend_string, ptr %204, i32 0, i32 3
  %206 = getelementptr inbounds [1 x i8], ptr %205, i64 0, i64 0
  %207 = call ptr (ptr, i64, ptr, ...) @zend_throw_exception_ex(ptr noundef %201, i64 noundef 0, ptr noundef @.str.21, ptr noundef %206)
  br label %208

208:                                              ; preds = %200
  %209 = load ptr, ptr getelementptr inbounds (%struct._zend_executor_globals, ptr @executor_globals, i32 0, i32 50), align 8
  %210 = icmp ne ptr %209, null
  call void @llvm.assume(i1 %210)
  br label %216

211:                                              ; No predecessors!
  br label %212

212:                                              ; preds = %211, %198
  %213 = load ptr, ptr %21, align 8
  %214 = load ptr, ptr %14, align 8
  %215 = getelementptr inbounds %struct._spl_array_object, ptr %214, i32 0, i32 11
  store ptr %213, ptr %215, align 8
  br label %216

216:                                              ; preds = %212, %208, %184, %162, %159, %155, %137, %89, %34
  ret void
}