; Function Attrs: nounwind uwtable
define hidden void @zim_ArrayObject___unserialize(ptr nocapture noundef readonly %0, ptr nocapture readnone %1) #0 {
  %3 = alloca ptr, align 8
  %4 = getelementptr inbounds i8, ptr %0, i64 32
  %5 = load ptr, ptr %4, align 8
  %6 = getelementptr inbounds i8, ptr %5, i64 -88
  %7 = getelementptr inbounds i8, ptr %0, i64 44
  %8 = load i32, ptr %7, align 4
  %9 = call i32 (i32, ptr, ...) @zend_parse_parameters(i32 noundef %8, ptr noundef nonnull @.str.17, ptr noundef nonnull %3) #11
  %10 = icmp eq i32 %9, -1
  br i1 %10, label %11, label %14

11:                                               ; preds = %2
  %12 = load ptr, ptr getelementptr inbounds (%struct._zend_executor_globals, ptr @executor_globals, i64 0, i32 50), align 8
  %13 = icmp ne ptr %12, null
  call void @llvm.assume(i1 %13)
  br label %91

14:                                               ; preds = %2
  %15 = load ptr, ptr %3, align 8
  %16 = call ptr @zend_hash_index_find(ptr noundef %15, i64 noundef 0) #11
  %17 = load ptr, ptr %3, align 8
  %18 = call ptr @zend_hash_index_find(ptr noundef %17, i64 noundef 1) #11
  %19 = load ptr, ptr %3, align 8
  %20 = call ptr @zend_hash_index_find(ptr noundef %19, i64 noundef 2) #11
  %21 = load ptr, ptr %3, align 8
  %22 = call ptr @zend_hash_index_find(ptr noundef %21, i64 noundef 3) #11
  %23 = icmp ne ptr %16, null
  %24 = icmp ne ptr %18, null
  %or.cond = select i1 %23, i1 %24, i1 false
  %25 = icmp ne ptr %20, null
  %or.cond3 = select i1 %or.cond, i1 %25, i1 false
  br i1 %or.cond3, label %26, label %36

26:                                               ; preds = %14
  %27 = getelementptr inbounds i8, ptr %16, i64 8
  %28 = load i8, ptr %27, align 8
  %.not = icmp eq i8 %28, 4
  br i1 %.not, label %29, label %36

29:                                               ; preds = %26
  %30 = getelementptr inbounds i8, ptr %20, i64 8
  %31 = load i8, ptr %30, align 8
  %.not53 = icmp eq i8 %31, 7
  br i1 %.not53, label %32, label %36

32:                                               ; preds = %29
  %.not54 = icmp eq ptr %22, null
  br i1 %.not54, label %41, label %33

33:                                               ; preds = %32
  %34 = getelementptr inbounds i8, ptr %22, i64 8
  %35 = load i8, ptr %34, align 8
  switch i8 %35, label %36 [
    i8 1, label %41
    i8 6, label %41
  ]

36:                                               ; preds = %33, %29, %26, %14
  %37 = load ptr, ptr @spl_ce_UnexpectedValueException, align 8
  %38 = call ptr @zend_throw_exception(ptr noundef %37, ptr noundef nonnull @.str.18, i64 noundef 0) #11
  %39 = load ptr, ptr getelementptr inbounds (%struct._zend_executor_globals, ptr @executor_globals, i64 0, i32 50), align 8
  %40 = icmp ne ptr %39, null
  call void @llvm.assume(i1 %40)
  br label %91

41:                                               ; preds = %33, %33, %32
  %42 = load i64, ptr %16, align 8
  %43 = getelementptr inbounds i8, ptr %5, i64 -68
  %44 = load i32, ptr %43, align 4
  %45 = and i32 %44, -16842752
  %46 = trunc i64 %42 to i32
  %47 = and i32 %46, 16842751
  %48 = or disjoint i32 %47, %45
  store i32 %48, ptr %43, align 4
  %49 = and i64 %42, 16777216
  %.not57 = icmp eq i64 %49, 0
  br i1 %.not57, label %52, label %50

50:                                               ; preds = %41
  call void @zval_ptr_dtor(ptr noundef nonnull %6) #11
  %51 = getelementptr inbounds i8, ptr %5, i64 -80
  store i32 0, ptr %51, align 8
  br label %61

52:                                               ; preds = %41
  %53 = getelementptr inbounds i8, ptr %18, i64 8
  %54 = load i8, ptr %53, align 8
  %.off = add i8 %54, -7
  %switch = icmp ult i8 %.off, 2
  br i1 %switch, label %60, label %55

55:                                               ; preds = %52
  %56 = load ptr, ptr @spl_ce_InvalidArgumentException, align 8
  %57 = call ptr @zend_throw_exception(ptr noundef %56, ptr noundef nonnull @.str.19, i64 noundef 0) #11
  %58 = load ptr, ptr getelementptr inbounds (%struct._zend_executor_globals, ptr @executor_globals, i64 0, i32 50), align 8
  %59 = icmp ne ptr %58, null
  call void @llvm.assume(i1 %59)
  br label %91

60:                                               ; preds = %52
  call fastcc void @spl_array_set_array(ptr noundef nonnull %4, ptr noundef nonnull %6, ptr noundef nonnull %18, i64 noundef 0, i1 noundef zeroext true)
  br label %61

61:                                               ; preds = %60, %50
  %62 = load ptr, ptr %20, align 8
  call void @object_properties_load(ptr noundef nonnull %5, ptr noundef %62) #11
  %63 = load ptr, ptr getelementptr inbounds (%struct._zend_executor_globals, ptr @executor_globals, i64 0, i32 50), align 8
  %.not60 = icmp ne ptr %63, null
  %brmerge = or i1 %.not54, %.not60
  br i1 %brmerge, label %91, label %64

64:                                               ; preds = %61
  %65 = getelementptr inbounds i8, ptr %22, i64 8
  %66 = load i8, ptr %65, align 8
  %67 = icmp eq i8 %66, 6
  br i1 %67, label %68, label %91

68:                                               ; preds = %64
  %69 = load ptr, ptr %22, align 8
  %70 = call ptr @zend_lookup_class(ptr noundef %69) #11
  %.not61 = icmp eq ptr %70, null
  br i1 %.not61, label %71, label %78

71:                                               ; preds = %68
  %72 = load ptr, ptr @spl_ce_UnexpectedValueException, align 8
  %73 = load ptr, ptr %22, align 8
  %74 = getelementptr inbounds i8, ptr %73, i64 24
  %75 = call ptr (ptr, i64, ptr, ...) @zend_throw_exception_ex(ptr noundef %72, i64 noundef 0, ptr noundef nonnull @.str.20, ptr noundef nonnull %74) #11
  %76 = load ptr, ptr getelementptr inbounds (%struct._zend_executor_globals, ptr @executor_globals, i64 0, i32 50), align 8
  %77 = icmp ne ptr %76, null
  call void @llvm.assume(i1 %77)
  br label %91

78:                                               ; preds = %68
  %79 = load ptr, ptr @zend_ce_iterator, align 8
  %80 = icmp eq ptr %70, %79
  br i1 %80, label %.critedge, label %81

81:                                               ; preds = %78
  %82 = call zeroext i1 @instanceof_function_slow(ptr noundef nonnull %70, ptr noundef %79) #11
  br i1 %82, label %.critedge, label %83

83:                                               ; preds = %81
  %84 = load ptr, ptr @spl_ce_UnexpectedValueException, align 8
  %85 = load ptr, ptr %22, align 8
  %86 = getelementptr inbounds i8, ptr %85, i64 24
  %87 = call ptr (ptr, i64, ptr, ...) @zend_throw_exception_ex(ptr noundef %84, i64 noundef 0, ptr noundef nonnull @.str.21, ptr noundef nonnull %86) #11
  %88 = load ptr, ptr getelementptr inbounds (%struct._zend_executor_globals, ptr @executor_globals, i64 0, i32 50), align 8
  %89 = icmp ne ptr %88, null
  call void @llvm.assume(i1 %89)
  br label %91

.critedge:                                        ; preds = %78, %81
  %90 = getelementptr inbounds i8, ptr %5, i64 -8
  store ptr %70, ptr %90, align 8
  br label %91

91:                                               ; preds = %61, %.critedge, %83, %71, %64, %55, %36, %11
  ret void
}